target datalayout = "e-m:e-p270:32:32-p271:32:32-p272:64:64-i64:64-i128:128-f80:128-n8:16:32:64-S128"
target triple = "x86_64-unknown-linux-gnu"

%"class.icu_75::RuleCharacterIterator" = type <{ ptr, ptr, ptr, ptr, i32, [4 x i8] }>
%"class.icu_75::ParsePosition" = type { %"class.icu_75::UObject", i32, i32 }
%"class.icu_75::UObject" = type { ptr }
%"class.icu_75::UnicodeString" = type { %"class.icu_75::Replaceable", %"union.icu_75::UnicodeString::StackBufferOrFields" }
%"class.icu_75::Replaceable" = type { %"class.icu_75::UObject" }
%"union.icu_75::UnicodeString::StackBufferOrFields" = type { %struct.anon.0, [32 x i8] }
%struct.anon.0 = type { i16, i32, i32, ptr }

; Function Attrs: mustprogress nounwind uwtable
define linkonce_odr noundef i32 @_ZNK6icu_7513UnicodeString14getShortLengthEv(ptr noundef nonnull align 8 dereferenceable(64) %this) #0 comdat align 2 {
entry:
  %this.addr = alloca ptr, align 8
  store ptr %this, ptr %this.addr, align 8
  %this1 = load ptr, ptr %this.addr, align 8
  %fUnion = getelementptr inbounds %"class.icu_75::UnicodeString", ptr %this1, i32 0, i32 1
  %fLengthAndFlags = getelementptr inbounds %struct.anon.0, ptr %fUnion, i32 0, i32 0
  %0 = load i16, ptr %fLengthAndFlags, align 8
  %conv = sext i16 %0 to i32
  %shr = ashr i32 %conv, 5
  ret i32 %shr
}

; Function Attrs: mustprogress nounwind uwtable
define linkonce_odr noundef signext i8 @_ZNK6icu_7513UnicodeString14hasShortLengthEv(ptr noundef nonnull align 8 dereferenceable(64) %this) #0 comdat align 2 {
entry:
  %this.addr = alloca ptr, align 8
  store ptr %this, ptr %this.addr, align 8
  %this1 = load ptr, ptr %this.addr, align 8
  %fUnion = getelementptr inbounds %"class.icu_75::UnicodeString", ptr %this1, i32 0, i32 1
  %fLengthAndFlags = getelementptr inbounds %struct.anon.0, ptr %fUnion, i32 0, i32 0
  %0 = load i16, ptr %fLengthAndFlags, align 8
  %conv = sext i16 %0 to i32
  %cmp = icmp sge i32 %conv, 0
  %conv2 = zext i1 %cmp to i8
  ret i8 %conv2
}

; Function Attrs: mustprogress nounwind uwtable
define linkonce_odr void @_ZN6icu_7513ParsePosition8setIndexEi(ptr noundef nonnull align 8 dereferenceable(16) %this, i32 noundef %offset) #0 comdat align 2 {
entry:
  %this.addr = alloca ptr, align 8
  %offset.addr = alloca i32, align 4
  store ptr %this, ptr %this.addr, align 8
  store i32 %offset, ptr %offset.addr, align 4
  %this1 = load ptr, ptr %this.addr, align 8
  %0 = load i32, ptr %offset.addr, align 4
  %index = getelementptr inbounds %"class.icu_75::ParsePosition", ptr %this1, i32 0, i32 1
  store i32 %0, ptr %index, align 8
  ret void
}

; Function Attrs: mustprogress nounwind uwtable
define linkonce_odr noundef i32 @_ZNK6icu_7513ParsePosition8getIndexEv(ptr noundef nonnull align 8 dereferenceable(16) %this) #0 comdat align 2 {
entry:
  %this.addr = alloca ptr, align 8
  store ptr %this, ptr %this.addr, align 8
  %this1 = load ptr, ptr %this.addr, align 8
  %index = getelementptr inbounds %"class.icu_75::ParsePosition", ptr %this1, i32 0, i32 1
  %0 = load i32, ptr %index, align 8
  ret i32 %0
}

; Function Attrs: mustprogress uwtable
define linkonce_odr noundef i32 @_ZNK6icu_7513UnicodeString6lengthEv(ptr noundef nonnull align 8 dereferenceable(64) %this) #1 comdat align 2 {
entry:
  %this.addr = alloca ptr, align 8
  store ptr %this, ptr %this.addr, align 8
  %this1 = load ptr, ptr %this.addr, align 8
  %call = call noundef signext i8 @_ZNK6icu_7513UnicodeString14hasShortLengthEv(ptr noundef nonnull align 8 dereferenceable(64) %this1)
  %tobool = icmp ne i8 %call, 0
  br i1 %tobool, label %cond.true, label %cond.false

cond.true:                                        ; preds = %entry
  %call2 = call noundef i32 @_ZNK6icu_7513UnicodeString14getShortLengthEv(ptr noundef nonnull align 8 dereferenceable(64) %this1)
  br label %cond.end

cond.false:                                       ; preds = %entry
  %fUnion = getelementptr inbounds %"class.icu_75::UnicodeString", ptr %this1, i32 0, i32 1
  %fLength = getelementptr inbounds %struct.anon.0, ptr %fUnion, i32 0, i32 1
  %0 = load i32, ptr %fLength, align 4
  br label %cond.end

cond.end:                                         ; preds = %cond.false, %cond.true
  %cond = phi i32 [ %call2, %cond.true ], [ %0, %cond.false ]
  ret i32 %cond
}

; Function Attrs: mustprogress uwtable
define void @_ZN6icu_7521RuleCharacterIterator8_advanceEi(ptr noundef nonnull align 8 dereferenceable(36) %this, i32 noundef %count) #1 align 2 {
entry:
  %this.addr = alloca ptr, align 8
  %count.addr = alloca i32, align 4
  store ptr %this, ptr %this.addr, align 8
  store i32 %count, ptr %count.addr, align 4
  %this1 = load ptr, ptr %this.addr, align 8
  %buf = getelementptr inbounds %"class.icu_75::RuleCharacterIterator", ptr %this1, i32 0, i32 3
  %0 = load ptr, ptr %buf, align 8
  %cmp = icmp ne ptr %0, null
  br i1 %cmp, label %if.then, label %if.else

if.then:                                          ; preds = %entry
  %1 = load i32, ptr %count.addr, align 4
  %bufPos = getelementptr inbounds %"class.icu_75::RuleCharacterIterator", ptr %this1, i32 0, i32 4
  %2 = load i32, ptr %bufPos, align 8
  %add = add nsw i32 %2, %1
  store i32 %add, ptr %bufPos, align 8
  %bufPos2 = getelementptr inbounds %"class.icu_75::RuleCharacterIterator", ptr %this1, i32 0, i32 4
  %3 = load i32, ptr %bufPos2, align 8
  %buf3 = getelementptr inbounds %"class.icu_75::RuleCharacterIterator", ptr %this1, i32 0, i32 3
  %4 = load ptr, ptr %buf3, align 8
  %call = call noundef i32 @_ZNK6icu_7513UnicodeString6lengthEv(ptr noundef nonnull align 8 dereferenceable(64) %4)
  %cmp4 = icmp eq i32 %3, %call
  br i1 %cmp4, label %if.then5, label %if.end

if.then5:                                         ; preds = %if.then
  %buf6 = getelementptr inbounds %"class.icu_75::RuleCharacterIterator", ptr %this1, i32 0, i32 3
  store ptr null, ptr %buf6, align 8
  br label %if.end

if.end:                                           ; preds = %if.then5, %if.then
  br label %if.end19

if.else:                                          ; preds = %entry
  %pos = getelementptr inbounds %"class.icu_75::RuleCharacterIterator", ptr %this1, i32 0, i32 1
  %5 = load ptr, ptr %pos, align 8
  %pos7 = getelementptr inbounds %"class.icu_75::RuleCharacterIterator", ptr %this1, i32 0, i32 1
  %6 = load ptr, ptr %pos7, align 8
  %call8 = call noundef i32 @_ZNK6icu_7513ParsePosition8getIndexEv(ptr noundef nonnull align 8 dereferenceable(16) %6)
  %7 = load i32, ptr %count.addr, align 4
  %add9 = add nsw i32 %call8, %7
  call void @_ZN6icu_7513ParsePosition8setIndexEi(ptr noundef nonnull align 8 dereferenceable(16) %5, i32 noundef %add9)
  %pos10 = getelementptr inbounds %"class.icu_75::RuleCharacterIterator", ptr %this1, i32 0, i32 1
  %8 = load ptr, ptr %pos10, align 8
  %call11 = call noundef i32 @_ZNK6icu_7513ParsePosition8getIndexEv(ptr noundef nonnull align 8 dereferenceable(16) %8)
  %text = getelementptr inbounds %"class.icu_75::RuleCharacterIterator", ptr %this1, i32 0, i32 0
  %9 = load ptr, ptr %text, align 8
  %call12 = call noundef i32 @_ZNK6icu_7513UnicodeString6lengthEv(ptr noundef nonnull align 8 dereferenceable(64) %9)
  %cmp13 = icmp sgt i32 %call11, %call12
  br i1 %cmp13, label %if.then14, label %if.end18

if.then14:                                        ; preds = %if.else
  %pos15 = getelementptr inbounds %"class.icu_75::RuleCharacterIterator", ptr %this1, i32 0, i32 1
  %10 = load ptr, ptr %pos15, align 8
  %text16 = getelementptr inbounds %"class.icu_75::RuleCharacterIterator", ptr %this1, i32 0, i32 0
  %11 = load ptr, ptr %text16, align 8
  %call17 = call noundef i32 @_ZNK6icu_7513UnicodeString6lengthEv(ptr noundef nonnull align 8 dereferenceable(64) %11)
  call void @_ZN6icu_7513ParsePosition8setIndexEi(ptr noundef nonnull align 8 dereferenceable(16) %10, i32 noundef %call17)
  br label %if.end18

if.end18:                                         ; preds = %if.then14, %if.else
  br label %if.end19

if.end19:                                         ; preds = %if.end18, %if.end
  ret void
}

; Function Attrs: mustprogress uwtable
define void @_ZN6icu_7521RuleCharacterIterator9jumpaheadEi(ptr noundef nonnull align 8 dereferenceable(36) %this, i32 noundef %count) #1 align 2 {
entry:
  %this.addr = alloca ptr, align 8
  %count.addr = alloca i32, align 4
  store ptr %this, ptr %this.addr, align 8
  store i32 %count, ptr %count.addr, align 4
  %this1 = load ptr, ptr %this.addr, align 8
  %0 = load i32, ptr %count.addr, align 4
  call void @_ZN6icu_7521RuleCharacterIterator8_advanceEi(ptr noundef nonnull align 8 dereferenceable(36) %this1, i32 noundef %0)
  ret void
}