; Function Attrs: mustprogress nofree norecurse nosync nounwind willreturn memory(readwrite, inaccessiblemem: none) uwtable
define void @_ZN6icu_7521RuleCharacterIterator9jumpaheadEi(ptr nocapture noundef nonnull align 8 dereferenceable(36) %this, i32 noundef %count) local_unnamed_addr #3 align 2 {
entry:
  %buf.i = getelementptr inbounds i8, ptr %this, i64 24
  %0 = load ptr, ptr %buf.i, align 8
  %cmp.not.i = icmp eq ptr %0, null
  br i1 %cmp.not.i, label %if.else.i, label %if.then.i

if.then.i:                                        ; preds = %entry
  %bufPos.i = getelementptr inbounds i8, ptr %this, i64 32
  %1 = load i32, ptr %bufPos.i, align 8
  %add.i = add nsw i32 %1, %count
  store i32 %add.i, ptr %bufPos.i, align 8
  %fUnion.i.i.i = getelementptr inbounds i8, ptr %0, i64 8
  %2 = load i16, ptr %fUnion.i.i.i, align 8
  %cmp.i.i.i = icmp slt i16 %2, 0
  %3 = ashr i16 %2, 5
  %shr.i.i.i = sext i16 %3 to i32
  %fLength.i.i = getelementptr inbounds i8, ptr %0, i64 12
  %4 = load i32, ptr %fLength.i.i, align 4
  %cond.i.i = select i1 %cmp.i.i.i, i32 %4, i32 %shr.i.i.i
  %cmp4.i = icmp eq i32 %add.i, %cond.i.i
  br i1 %cmp4.i, label %if.then5.i, label %_ZN6icu_7521RuleCharacterIterator8_advanceEi.exit

if.then5.i:                                       ; preds = %if.then.i
  store ptr null, ptr %buf.i, align 8
  br label %_ZN6icu_7521RuleCharacterIterator8_advanceEi.exit

if.else.i:                                        ; preds = %entry
  %pos.i = getelementptr inbounds i8, ptr %this, i64 8
  %5 = load ptr, ptr %pos.i, align 8
  %index.i.i = getelementptr inbounds i8, ptr %5, i64 8
  %6 = load i32, ptr %index.i.i, align 8
  %add9.i = add nsw i32 %6, %count
  store i32 %add9.i, ptr %index.i.i, align 8
  %7 = load ptr, ptr %pos.i, align 8
  %index.i3.i = getelementptr inbounds i8, ptr %7, i64 8
  %8 = load i32, ptr %index.i3.i, align 8
  %9 = load ptr, ptr %this, align 8
  %fUnion.i.i4.i = getelementptr inbounds i8, ptr %9, i64 8
  %10 = load i16, ptr %fUnion.i.i4.i, align 8
  %cmp.i.i5.i = icmp slt i16 %10, 0
  %11 = ashr i16 %10, 5
  %shr.i.i6.i = sext i16 %11 to i32
  %fLength.i7.i = getelementptr inbounds i8, ptr %9, i64 12
  %12 = load i32, ptr %fLength.i7.i, align 4
  %cond.i8.i = select i1 %cmp.i.i5.i, i32 %12, i32 %shr.i.i6.i
  %cmp13.i = icmp sgt i32 %8, %cond.i8.i
  br i1 %cmp13.i, label %if.then14.i, label %_ZN6icu_7521RuleCharacterIterator8_advanceEi.exit

if.then14.i:                                      ; preds = %if.else.i
  store i32 %cond.i8.i, ptr %index.i3.i, align 8
  br label %_ZN6icu_7521RuleCharacterIterator8_advanceEi.exit

_ZN6icu_7521RuleCharacterIterator8_advanceEi.exit: ; preds = %if.then.i, %if.then5.i, %if.else.i, %if.then14.i
  ret void
}